; Function Attrs: mustprogress uwtable
define noundef zeroext i1 @_ZN5draco32SequentialNormalAttributeDecoder35DecodeDataNeededByPortableTransformERKSt6vectorINS_9IndexTypeIjNS_20PointIndex_tag_type_EEESaIS4_EEPNS_13DecoderBufferE(ptr noundef nonnull align 8 dereferenceable(64) %0, ptr nonnull readnone align 1 captures(none) %1, ptr noundef %2) unnamed_addr #3 align 2 {
  %4 = getelementptr inbounds nuw i8, ptr %0, i64 8
  %5 = load ptr, ptr %4, align 8, !tbaa !31
  %6 = getelementptr inbounds nuw i8, ptr %5, i64 72
  %7 = load i8, ptr %6, align 8, !tbaa !32
  %8 = icmp ugt i8 %7, 1
  br i1 %8, label %9, label %13

9:                                                ; preds = %3
  %10 = getelementptr inbounds nuw i8, ptr %0, i64 48
  %11 = tail call noundef ptr @_ZN5draco26SequentialAttributeDecoder20GetPortableAttributeEv(ptr noundef nonnull align 8 dereferenceable(40) %0)
  %12 = tail call noundef zeroext i1 @_ZN5draco28AttributeOctahedronTransform16DecodeParametersERKNS_14PointAttributeEPNS_13DecoderBufferE(ptr noundef nonnull align 8 dereferenceable(12) %10, ptr noundef nonnull align 8 dereferenceable(112) %11, ptr noundef %2)
  br i1 %12, label %13, label %18

13:                                               ; preds = %9, %3
  %14 = getelementptr inbounds nuw i8, ptr %0, i64 48
  %15 = getelementptr inbounds nuw i8, ptr %0, i64 32
  %16 = load ptr, ptr %15, align 8, !tbaa !47
  %17 = tail call noundef zeroext i1 @_ZNK5draco18AttributeTransform19TransferToAttributeEPNS_14PointAttributeE(ptr noundef nonnull align 8 dereferenceable(8) %14, ptr noundef %16)
  br label %18

18:                                               ; preds = %9, %13
  %.0 = phi i1 [ %17, %13 ], [ false, %9 ]
  ret i1 %.0
}